target datalayout = "e-m:e-p270:32:32-p271:32:32-p272:64:64-i64:64-i128:128-f80:128-n8:16:32:64-S128"
target triple = "x86_64-unknown-linux-gnu"

@_ZTVN6Assimp10SubdividerE = linkonce_odr unnamed_addr constant { [6 x ptr] } { [6 x ptr] [ptr null, ptr @_ZTIN6Assimp10SubdividerE, ptr @_ZN6Assimp10SubdividerD2Ev, ptr @_ZN6Assimp10SubdividerD0Ev, ptr @__cxa_pure_virtual, ptr @__cxa_pure_virtual] }, comdat, align 8

; Function Attrs: mustprogress nounwind uwtable
define linkonce_odr void @_ZN6Assimp10SubdividerC2Ev(ptr noundef nonnull align 8 dereferenceable(8) %this) unnamed_addr #0 comdat align 2 {
entry:
  %this.addr = alloca ptr, align 8
  store ptr %this, ptr %this.addr, align 8
  %this1 = load ptr, ptr %this.addr, align 8
  store ptr getelementptr inbounds ({ [6 x ptr] }, ptr @_ZTVN6Assimp10SubdividerE, i32 0, i32 0, i32 2), ptr %this1, align 8
  ret void
}

; Function Attrs: mustprogress nounwind uwtable
define linkonce_odr hidden void @_ZN22CatmullClarkSubdividerC2Ev(ptr noundef nonnull align 8 dereferenceable(8) %this) unnamed_addr #0 comdat align 2 {
entry:
  %this.addr = alloca ptr, align 8
  store ptr %this, ptr %this.addr, align 8
  %this1 = load ptr, ptr %this.addr, align 8
  call void @_ZN6Assimp10SubdividerC2Ev(ptr noundef nonnull align 8 dereferenceable(8) %this1) #15
  store ptr getelementptr inbounds ({ [6 x ptr] }, ptr @_ZTV22CatmullClarkSubdivider, i32 0, i32 0, i32 2), ptr %this1, align 8
  ret void
}

; Function Attrs: mustprogress uwtable
define noundef ptr @_ZN6Assimp10Subdivider6CreateENS0_9AlgorithmE(i32 noundef %algo) #2 align 2 {
entry:
  %retval = alloca ptr, align 8
  %algo.addr = alloca i32, align 4
  store i32 %algo, ptr %algo.addr, align 4
  %0 = load i32, ptr %algo.addr, align 4
  switch i32 %0, label %sw.epilog [
    i32 1, label %sw.bb
  ]

sw.bb:                                            ; preds = %entry
  %call = call noalias noundef nonnull ptr @_Znwm(i64 noundef 8) #14
  call void @llvm.memset.p0.i64(ptr align 8 %call, i8 0, i64 8, i1 false)
  call void @_ZN22CatmullClarkSubdividerC2Ev(ptr noundef nonnull align 8 dereferenceable(8) %call) #15
  store ptr %call, ptr %retval, align 8
  br label %return

sw.epilog:                                        ; preds = %entry
  store ptr null, ptr %retval, align 8
  br label %return

return:                                           ; preds = %sw.epilog, %sw.bb
  %1 = load ptr, ptr %retval, align 8
  ret ptr %1
}