; Function Attrs: mustprogress uwtable
define noalias noundef ptr @_ZN6Assimp10Subdivider6CreateENS0_9AlgorithmE(i32 noundef %algo) local_unnamed_addr #1 align 2 {
entry:
  %cond = icmp eq i32 %algo, 1
  br i1 %cond, label %sw.bb, label %return

sw.bb:                                            ; preds = %entry
  %call = tail call noalias noundef nonnull dereferenceable(8) ptr @_Znwm(i64 noundef 8) #16
  store ptr getelementptr inbounds ({ [6 x ptr] }, ptr @_ZTV22CatmullClarkSubdivider, i64 0, i32 0, i64 2), ptr %call, align 8
  br label %return

return:                                           ; preds = %entry, %sw.bb
  %retval.0 = phi ptr [ %call, %sw.bb ], [ null, %entry ]
  ret ptr %retval.0
}